target datalayout = "e-m:e-p270:32:32-p271:32:32-p272:64:64-i64:64-i128:128-f80:128-n8:16:32:64-S128"
target triple = "x86_64-pc-linux-gnu"

%struct.H5O_link_t = type { i32, i8, i64, i32, ptr, %union.anon.0 }
%union.anon.0 = type { %struct.H5O_link_ud_t }
%struct.H5O_link_ud_t = type { ptr, i64 }
%struct.H5G_fh_ud_gnbi_t = type { ptr, ptr, i64, i64 }

@.str = private unnamed_addr constant [102 x i8] c"generated/home/dtcxzyw/WorkSpace/Projects/compilers/llvm-opt-benchmark/bench/hdf5/hdf5/src/H5Gdense.c\00", align 1
@H5E_SYM_g = external global i64, align 8
@H5E_CANTDECODE_g = external global i64, align 8
@.str.42 = private unnamed_addr constant [18 x i8] c"can't decode link\00", align 1
@__func__.H5G__dense_get_name_by_idx_fh_cb = private unnamed_addr constant [33 x i8] c"H5G__dense_get_name_by_idx_fh_cb\00", align 1

; Function Attrs: nounwind uwtable
define internal i32 @H5G__dense_get_name_by_idx_fh_cb(ptr noundef %0, i64 noundef %1, ptr noundef %2) #0 {
  %4 = alloca ptr, align 8
  %5 = alloca i64, align 8
  %6 = alloca ptr, align 8
  %7 = alloca ptr, align 8
  %8 = alloca ptr, align 8
  %9 = alloca i32, align 4
  %10 = alloca i8, align 1
  store ptr %0, ptr %4, align 8
  store i64 %1, ptr %5, align 8
  store ptr %2, ptr %6, align 8
  %11 = load ptr, ptr %6, align 8
  store ptr %11, ptr %7, align 8
  store i32 0, ptr %9, align 4
  store i8 0, ptr %10, align 1
  %12 = load ptr, ptr %7, align 8
  %13 = getelementptr inbounds %struct.H5G_fh_ud_gnbi_t, ptr %12, i32 0, i32 0
  %14 = load ptr, ptr %13, align 8
  %15 = load i64, ptr %5, align 8
  %16 = load ptr, ptr %4, align 8
  %17 = call ptr @H5O_msg_decode(ptr noundef %14, ptr noundef null, i32 noundef 6, i64 noundef %15, ptr noundef %16)
  store ptr %17, ptr %8, align 8
  %18 = icmp eq ptr null, %17
  br i1 %18, label %19, label %34

19:                                               ; preds = %3
  br label %20

20:                                               ; preds = %19
  br label %21

21:                                               ; preds = %20
  br label %22

22:                                               ; preds = %21
  %23 = load i64, ptr @H5E_SYM_g, align 8
  %24 = load i64, ptr @H5E_CANTDECODE_g, align 8
  %25 = call i32 (ptr, ptr, i32, i64, i64, ptr, ...) @H5E_printf_stack(ptr noundef @.str, ptr noundef @__func__.H5G__dense_get_name_by_idx_fh_cb, i32 noundef 1004, i64 noundef %23, i64 noundef %24, ptr noundef @.str.42)
  br label %26

26:                                               ; preds = %22
  store i8 1, ptr %10, align 1
  %27 = load i8, ptr %10, align 1
  %28 = trunc i8 %27 to i1
  %29 = zext i1 %28 to i8
  store i8 %29, ptr %10, align 1
  br label %30

30:                                               ; preds = %26
  br label %31

31:                                               ; preds = %30
  store i32 -1, ptr %9, align 4
  br label %92

32:                                               ; No predecessors!
  br label %33

33:                                               ; preds = %32
  br label %34

34:                                               ; preds = %33, %3
  %35 = load ptr, ptr %8, align 8
  %36 = getelementptr inbounds %struct.H5O_link_t, ptr %35, i32 0, i32 4
  %37 = load ptr, ptr %36, align 8
  %38 = call i64 @strlen(ptr noundef %37) #7
  %39 = load ptr, ptr %7, align 8
  %40 = getelementptr inbounds %struct.H5G_fh_ud_gnbi_t, ptr %39, i32 0, i32 3
  store i64 %38, ptr %40, align 8
  %41 = load ptr, ptr %7, align 8
  %42 = getelementptr inbounds %struct.H5G_fh_ud_gnbi_t, ptr %41, i32 0, i32 1
  %43 = load ptr, ptr %42, align 8
  %44 = icmp ne ptr %43, null
  br i1 %44, label %45, label %89

45:                                               ; preds = %34
  %46 = load ptr, ptr %7, align 8
  %47 = getelementptr inbounds %struct.H5G_fh_ud_gnbi_t, ptr %46, i32 0, i32 1
  %48 = load ptr, ptr %47, align 8
  %49 = load ptr, ptr %8, align 8
  %50 = getelementptr inbounds %struct.H5O_link_t, ptr %49, i32 0, i32 4
  %51 = load ptr, ptr %50, align 8
  %52 = load ptr, ptr %7, align 8
  %53 = getelementptr inbounds %struct.H5G_fh_ud_gnbi_t, ptr %52, i32 0, i32 3
  %54 = load i64, ptr %53, align 8
  %55 = add i64 %54, 1
  %56 = load ptr, ptr %7, align 8
  %57 = getelementptr inbounds %struct.H5G_fh_ud_gnbi_t, ptr %56, i32 0, i32 2
  %58 = load i64, ptr %57, align 8
  %59 = icmp ult i64 %55, %58
  br i1 %59, label %60, label %65

60:                                               ; preds = %45
  %61 = load ptr, ptr %7, align 8
  %62 = getelementptr inbounds %struct.H5G_fh_ud_gnbi_t, ptr %61, i32 0, i32 3
  %63 = load i64, ptr %62, align 8
  %64 = add i64 %63, 1
  br label %69

65:                                               ; preds = %45
  %66 = load ptr, ptr %7, align 8
  %67 = getelementptr inbounds %struct.H5G_fh_ud_gnbi_t, ptr %66, i32 0, i32 2
  %68 = load i64, ptr %67, align 8
  br label %69

69:                                               ; preds = %65, %60
  %70 = phi i64 [ %64, %60 ], [ %68, %65 ]
  %71 = call ptr @strncpy(ptr noundef %48, ptr noundef %51, i64 noundef %70) #9
  %72 = load ptr, ptr %7, align 8
  %73 = getelementptr inbounds %struct.H5G_fh_ud_gnbi_t, ptr %72, i32 0, i32 3
  %74 = load i64, ptr %73, align 8
  %75 = load ptr, ptr %7, align 8
  %76 = getelementptr inbounds %struct.H5G_fh_ud_gnbi_t, ptr %75, i32 0, i32 2
  %77 = load i64, ptr %76, align 8
  %78 = icmp uge i64 %74, %77
  br i1 %78, label %79, label %88

79:                                               ; preds = %69
  %80 = load ptr, ptr %7, align 8
  %81 = getelementptr inbounds %struct.H5G_fh_ud_gnbi_t, ptr %80, i32 0, i32 1
  %82 = load ptr, ptr %81, align 8
  %83 = load ptr, ptr %7, align 8
  %84 = getelementptr inbounds %struct.H5G_fh_ud_gnbi_t, ptr %83, i32 0, i32 2
  %85 = load i64, ptr %84, align 8
  %86 = sub i64 %85, 1
  %87 = getelementptr inbounds i8, ptr %82, i64 %86
  store i8 0, ptr %87, align 1
  br label %88

88:                                               ; preds = %79, %69
  br label %89

89:                                               ; preds = %88, %34
  %90 = load ptr, ptr %8, align 8
  %91 = call ptr @H5O_msg_free(i32 noundef 6, ptr noundef %90)
  br label %92

92:                                               ; preds = %89, %31
  %93 = load i32, ptr %9, align 4
  ret i32 %93
}