; Function Attrs: nounwind uwtable
define internal range(i32 -1, 1) i32 @H5G__dense_get_name_by_idx_fh_cb(ptr noundef %0, i64 noundef %1, ptr nocapture noundef %2) #0 {
  %4 = load ptr, ptr %2, align 8
  %5 = tail call ptr @H5O_msg_decode(ptr noundef %4, ptr noundef null, i32 noundef 6, i64 noundef %1, ptr noundef %0) #8
  %6 = icmp eq ptr %5, null
  br i1 %6, label %7, label %11

7:                                                ; preds = %3
  %8 = load i64, ptr @H5E_SYM_g, align 8
  %9 = load i64, ptr @H5E_CANTDECODE_g, align 8
  %10 = tail call i32 (ptr, ptr, i32, i64, i64, ptr, ...) @H5E_printf_stack(ptr noundef nonnull @.str, ptr noundef nonnull @__func__.H5G__dense_get_name_by_idx_fh_cb, i32 noundef 1004, i64 noundef %8, i64 noundef %9, ptr noundef nonnull @.str.42) #8
  br label %32

11:                                               ; preds = %3
  %12 = getelementptr inbounds i8, ptr %5, i64 24
  %13 = load ptr, ptr %12, align 8
  %14 = tail call i64 @strlen(ptr noundef nonnull dereferenceable(1) %13) #9
  %15 = getelementptr inbounds i8, ptr %2, i64 24
  store i64 %14, ptr %15, align 8
  %16 = getelementptr inbounds i8, ptr %2, i64 8
  %17 = load ptr, ptr %16, align 8
  %.not = icmp eq ptr %17, null
  br i1 %.not, label %30, label %18

18:                                               ; preds = %11
  %19 = load ptr, ptr %12, align 8
  %20 = add i64 %14, 1
  %21 = getelementptr inbounds i8, ptr %2, i64 16
  %22 = load i64, ptr %21, align 8
  %. = tail call i64 @llvm.umin.i64(i64 %20, i64 %22)
  %23 = tail call ptr @strncpy(ptr noundef nonnull %17, ptr noundef %19, i64 noundef %.) #8
  %24 = load i64, ptr %15, align 8
  %25 = load i64, ptr %21, align 8
  %.not24 = icmp ult i64 %24, %25
  br i1 %.not24, label %30, label %26

26:                                               ; preds = %18
  %27 = load ptr, ptr %16, align 8
  %28 = getelementptr i8, ptr %27, i64 %25
  %29 = getelementptr i8, ptr %28, i64 -1
  store i8 0, ptr %29, align 1
  br label %30

30:                                               ; preds = %18, %26, %11
  %31 = tail call ptr @H5O_msg_free(i32 noundef 6, ptr noundef nonnull %5) #8
  br label %32

32:                                               ; preds = %30, %7
  %.0 = phi i32 [ -1, %7 ], [ 0, %30 ]
  ret i32 %.0
}